target datalayout = "e-m:e-p270:32:32-p271:32:32-p272:64:64-i64:64-i128:128-f80:128-n8:16:32:64-S128"
target triple = "x86_64-unknown-linux-gnu"

%class.btVector3 = type { [4 x float] }
%"struct.btCollisionWorld::LocalRayResult" = type <{ ptr, ptr, %class.btVector3, float, [4 x i8] }>
%"struct.btCollisionWorld::RayResultCallback" = type <{ ptr, float, [4 x i8], ptr, i32, i32, i32, [4 x i8] }>
%struct.LocalInfoAdder2 = type <{ %"struct.btCollisionWorld::RayResultCallback.base", [4 x i8], ptr, i32, [4 x i8] }>
%"struct.btCollisionWorld::RayResultCallback.base" = type <{ ptr, float, [4 x i8], ptr, i32, i32, i32 }>
%"struct.btCollisionWorld::LocalShapeInfo" = type { i32, i32 }

; Function Attrs: mustprogress uwtable
define internal noundef float @_ZZN16btCollisionWorld21rayTestSingleInternalERK11btTransformS2_PK24btCollisionObjectWrapperRNS_17RayResultCallbackEEN15LocalInfoAdder215addSingleResultERNS_14LocalRayResultEb(ptr noundef nonnull align 8 dereferenceable(52) %this, ptr noundef nonnull align 8 dereferenceable(36) %r, i1 noundef zeroext %b) unnamed_addr #2 align 2 {
entry:
  %this.addr = alloca ptr, align 8
  %r.addr = alloca ptr, align 8
  %b.addr = alloca i8, align 1
  %shapeInfo = alloca %"struct.btCollisionWorld::LocalShapeInfo", align 4
  %result = alloca float, align 4
  store ptr %this, ptr %this.addr, align 8
  store ptr %r, ptr %r.addr, align 8
  %frombool = zext i1 %b to i8
  store i8 %frombool, ptr %b.addr, align 1
  %this1 = load ptr, ptr %this.addr, align 8
  %m_shapePart = getelementptr inbounds %"struct.btCollisionWorld::LocalShapeInfo", ptr %shapeInfo, i32 0, i32 0
  store i32 -1, ptr %m_shapePart, align 4
  %m_i = getelementptr inbounds %struct.LocalInfoAdder2, ptr %this1, i32 0, i32 3
  %0 = load i32, ptr %m_i, align 8
  %m_triangleIndex = getelementptr inbounds %"struct.btCollisionWorld::LocalShapeInfo", ptr %shapeInfo, i32 0, i32 1
  store i32 %0, ptr %m_triangleIndex, align 4
  %1 = load ptr, ptr %r.addr, align 8
  %m_localShapeInfo = getelementptr inbounds %"struct.btCollisionWorld::LocalRayResult", ptr %1, i32 0, i32 1
  %2 = load ptr, ptr %m_localShapeInfo, align 8
  %cmp = icmp eq ptr %2, null
  br i1 %cmp, label %if.then, label %if.end

if.then:                                          ; preds = %entry
  %3 = load ptr, ptr %r.addr, align 8
  %m_localShapeInfo2 = getelementptr inbounds %"struct.btCollisionWorld::LocalRayResult", ptr %3, i32 0, i32 1
  store ptr %shapeInfo, ptr %m_localShapeInfo2, align 8
  br label %if.end

if.end:                                           ; preds = %if.then, %entry
  %m_userCallback = getelementptr inbounds %struct.LocalInfoAdder2, ptr %this1, i32 0, i32 2
  %4 = load ptr, ptr %m_userCallback, align 8
  %5 = load ptr, ptr %r.addr, align 8
  %6 = load i8, ptr %b.addr, align 1
  %tobool = trunc i8 %6 to i1
  %vtable = load ptr, ptr %4, align 8
  %vfn = getelementptr inbounds ptr, ptr %vtable, i64 3
  %7 = load ptr, ptr %vfn, align 8
  %call = call noundef float %7(ptr noundef nonnull align 8 dereferenceable(36) %4, ptr noundef nonnull align 8 dereferenceable(36) %5, i1 noundef zeroext %tobool)
  store float %call, ptr %result, align 4
  %m_userCallback3 = getelementptr inbounds %struct.LocalInfoAdder2, ptr %this1, i32 0, i32 2
  %8 = load ptr, ptr %m_userCallback3, align 8
  %m_closestHitFraction = getelementptr inbounds %"struct.btCollisionWorld::RayResultCallback", ptr %8, i32 0, i32 1
  %9 = load float, ptr %m_closestHitFraction, align 8
  %m_closestHitFraction4 = getelementptr inbounds %"struct.btCollisionWorld::RayResultCallback", ptr %this1, i32 0, i32 1
  store float %9, ptr %m_closestHitFraction4, align 8
  %10 = load float, ptr %result, align 4
  ret float %10
}